target datalayout = "e-m:e-p270:32:32-p271:32:32-p272:64:64-i64:64-i128:128-f80:128-n8:16:32:64-S128"
target triple = "x86_64-pc-linux-gnu"

%"struct.Luau::BytecodeBuilder::ConstantKey" = type { i32, i64, i64 }
%"struct.Luau::BytecodeBuilder::Constant" = type { i32, %union.anon.82 }
%union.anon.82 = type { double, [8 x i8] }

@__const._ZN4Luau15BytecodeBuilder17addConstantVectorEffff.c = private unnamed_addr constant { i32, [4 x i8], { i8, [15 x i8] } } { i32 3, [4 x i8] undef, { i8, [15 x i8] } { i8 0, [15 x i8] undef } }, align 8

; Function Attrs: mustprogress uwtable
define dso_local noundef i32 @_ZN4Luau15BytecodeBuilder17addConstantVectorEffff(ptr noundef nonnull align 8 dereferenceable(840) %0, float noundef %1, float noundef %2, float noundef %3, float noundef %4) #2 align 2 {
  %6 = alloca ptr, align 8
  %7 = alloca float, align 4
  %8 = alloca float, align 4
  %9 = alloca float, align 4
  %10 = alloca float, align 4
  %11 = alloca %"struct.Luau::BytecodeBuilder::Constant", align 8
  %12 = alloca %"struct.Luau::BytecodeBuilder::ConstantKey", align 8
  store ptr %0, ptr %6, align 8, !tbaa !35
  store float %1, ptr %7, align 4, !tbaa !261
  store float %2, ptr %8, align 4, !tbaa !261
  store float %3, ptr %9, align 4, !tbaa !261
  store float %4, ptr %10, align 4, !tbaa !261
  %13 = load ptr, ptr %6, align 8
  call void @llvm.lifetime.start.p0(i64 24, ptr %11) #19
  call void @llvm.memcpy.p0.p0.i64(ptr align 8 %11, ptr align 8 @__const._ZN4Luau15BytecodeBuilder17addConstantVectorEffff.c, i64 24, i1 false)
  %14 = load float, ptr %7, align 4, !tbaa !261
  %15 = getelementptr inbounds nuw %"struct.Luau::BytecodeBuilder::Constant", ptr %11, i32 0, i32 1
  %16 = getelementptr inbounds [4 x float], ptr %15, i64 0, i64 0
  store float %14, ptr %16, align 8, !tbaa !220
  %17 = load float, ptr %8, align 4, !tbaa !261
  %18 = getelementptr inbounds nuw %"struct.Luau::BytecodeBuilder::Constant", ptr %11, i32 0, i32 1
  %19 = getelementptr inbounds [4 x float], ptr %18, i64 0, i64 1
  store float %17, ptr %19, align 4, !tbaa !220
  %20 = load float, ptr %9, align 4, !tbaa !261
  %21 = getelementptr inbounds nuw %"struct.Luau::BytecodeBuilder::Constant", ptr %11, i32 0, i32 1
  %22 = getelementptr inbounds [4 x float], ptr %21, i64 0, i64 2
  store float %20, ptr %22, align 8, !tbaa !220
  %23 = load float, ptr %10, align 4, !tbaa !261
  %24 = getelementptr inbounds nuw %"struct.Luau::BytecodeBuilder::Constant", ptr %11, i32 0, i32 1
  %25 = getelementptr inbounds [4 x float], ptr %24, i64 0, i64 3
  store float %23, ptr %25, align 4, !tbaa !220
  call void @llvm.lifetime.start.p0(i64 24, ptr %12) #19
  %26 = getelementptr inbounds nuw %"struct.Luau::BytecodeBuilder::ConstantKey", ptr %12, i32 0, i32 0
  store i32 3, ptr %26, align 8, !tbaa !25
  %27 = getelementptr inbounds nuw %"struct.Luau::BytecodeBuilder::ConstantKey", ptr %12, i32 0, i32 1
  store i64 0, ptr %27, align 8, !tbaa !29
  %28 = getelementptr inbounds nuw %"struct.Luau::BytecodeBuilder::ConstantKey", ptr %12, i32 0, i32 2
  store i64 0, ptr %28, align 8, !tbaa !139
  %29 = getelementptr inbounds nuw %"struct.Luau::BytecodeBuilder::ConstantKey", ptr %12, i32 0, i32 1
  call void @llvm.memcpy.p0.p0.i64(ptr align 8 %29, ptr align 4 %7, i64 4, i1 false)
  %30 = getelementptr inbounds nuw %"struct.Luau::BytecodeBuilder::ConstantKey", ptr %12, i32 0, i32 1
  %31 = getelementptr inbounds nuw i8, ptr %30, i64 4
  call void @llvm.memcpy.p0.p0.i64(ptr align 1 %31, ptr align 4 %8, i64 4, i1 false)
  %32 = getelementptr inbounds nuw %"struct.Luau::BytecodeBuilder::ConstantKey", ptr %12, i32 0, i32 2
  call void @llvm.memcpy.p0.p0.i64(ptr align 8 %32, ptr align 4 %9, i64 4, i1 false)
  %33 = getelementptr inbounds nuw %"struct.Luau::BytecodeBuilder::ConstantKey", ptr %12, i32 0, i32 2
  %34 = getelementptr inbounds nuw i8, ptr %33, i64 4
  call void @llvm.memcpy.p0.p0.i64(ptr align 1 %34, ptr align 4 %10, i64 4, i1 false)
  %35 = call noundef i32 @_ZN4Luau15BytecodeBuilder11addConstantERKNS0_11ConstantKeyERKNS0_8ConstantE(ptr noundef nonnull align 8 dereferenceable(840) %13, ptr noundef nonnull align 8 dereferenceable(24) %12, ptr noundef nonnull align 8 dereferenceable(24) %11)
  call void @llvm.lifetime.end.p0(i64 24, ptr %12) #19
  call void @llvm.lifetime.end.p0(i64 24, ptr %11) #19
  ret i32 %35
}