; Function Attrs: mustprogress uwtable
define dso_local noundef i32 @_ZN4Luau15BytecodeBuilder17addConstantVectorEffff(ptr noundef nonnull align 8 dereferenceable(840) %0, float noundef %1, float noundef %2, float noundef %3, float noundef %4) local_unnamed_addr #3 align 2 {
  %6 = alloca %"struct.Luau::BytecodeBuilder::Constant", align 8
  %7 = alloca %"struct.Luau::BytecodeBuilder::ConstantKey", align 8
  call void @llvm.lifetime.start.p0(i64 24, ptr nonnull %6) #33
  store i64 3, ptr %6, align 8
  %8 = getelementptr inbounds nuw i8, ptr %6, i64 8
  store float %1, ptr %8, align 8, !tbaa !128
  %9 = getelementptr inbounds nuw i8, ptr %6, i64 12
  store float %2, ptr %9, align 4, !tbaa !128
  %10 = getelementptr inbounds nuw i8, ptr %6, i64 16
  store float %3, ptr %10, align 8, !tbaa !128
  %11 = getelementptr inbounds nuw i8, ptr %6, i64 20
  store float %4, ptr %11, align 4, !tbaa !128
  call void @llvm.lifetime.start.p0(i64 24, ptr nonnull %7) #33
  store i32 3, ptr %7, align 8, !tbaa !15
  %12 = getelementptr inbounds nuw i8, ptr %7, i64 8
  %13 = getelementptr inbounds nuw i8, ptr %7, i64 16
  store float %1, ptr %12, align 8
  %14 = getelementptr inbounds nuw i8, ptr %7, i64 12
  store float %2, ptr %14, align 4
  store float %3, ptr %13, align 8
  %15 = getelementptr inbounds nuw i8, ptr %7, i64 20
  store float %4, ptr %15, align 4
  %16 = call noundef i32 @_ZN4Luau15BytecodeBuilder11addConstantERKNS0_11ConstantKeyERKNS0_8ConstantE(ptr noundef nonnull align 8 dereferenceable(840) %0, ptr noundef nonnull align 8 dereferenceable(24) %7, ptr noundef nonnull align 8 dereferenceable(24) %6)
  call void @llvm.lifetime.end.p0(i64 24, ptr nonnull %7) #33
  call void @llvm.lifetime.end.p0(i64 24, ptr nonnull %6) #33
  ret i32 %16
}